target datalayout = "e-m:e-p270:32:32-p271:32:32-p272:64:64-i64:64-i128:128-f80:128-n8:16:32:64-S128"
target triple = "x86_64-pc-linux-gnu"

%"class.llvm::SmallVectorBase" = type { ptr, i32, i32 }
%"class.llvm::MemorySSAUpdater" = type { ptr, %"class.llvm::SmallVector", %"class.llvm::SmallPtrSet", %"class.llvm::SmallSet" }
%"class.llvm::SmallVector" = type { %"class.llvm::SmallVectorImpl", %"struct.llvm::SmallVectorStorage" }
%"class.llvm::SmallVectorImpl" = type { %"class.llvm::SmallVectorTemplateBase" }
%"class.llvm::SmallVectorTemplateBase" = type { %"class.llvm::SmallVectorTemplateCommon" }
%"class.llvm::SmallVectorTemplateCommon" = type { %"class.llvm::SmallVectorBase" }
%"struct.llvm::SmallVectorStorage" = type { [384 x i8] }
%"class.llvm::SmallPtrSet" = type { %"class.llvm::SmallPtrSetImpl.base", [8 x ptr] }
%"class.llvm::SmallPtrSetImpl.base" = type { %"class.llvm::SmallPtrSetImplBase.base" }
%"class.llvm::SmallPtrSetImplBase.base" = type <{ ptr, ptr, i32, i32, i32 }>
%"class.llvm::SmallSet" = type { %"class.llvm::SmallVector.0", %"class.std::set" }
%"class.llvm::SmallVector.0" = type { %"class.llvm::SmallVectorImpl.1", %"struct.llvm::SmallVectorStorage.4" }
%"class.llvm::SmallVectorImpl.1" = type { %"class.llvm::SmallVectorTemplateBase.2" }
%"class.llvm::SmallVectorTemplateBase.2" = type { %"class.llvm::SmallVectorTemplateCommon.3" }
%"class.llvm::SmallVectorTemplateCommon.3" = type { %"class.llvm::SmallVectorBase" }
%"struct.llvm::SmallVectorStorage.4" = type { [64 x i8] }
%"class.std::set" = type { %"class.std::_Rb_tree" }
%"class.std::_Rb_tree" = type { %"struct.std::_Rb_tree<llvm::AssertingVH<llvm::MemoryPhi>, llvm::AssertingVH<llvm::MemoryPhi>, std::_Identity<llvm::AssertingVH<llvm::MemoryPhi>>, std::less<llvm::AssertingVH<llvm::MemoryPhi>>>::_Rb_tree_impl" }
%"struct.std::_Rb_tree<llvm::AssertingVH<llvm::MemoryPhi>, llvm::AssertingVH<llvm::MemoryPhi>, std::_Identity<llvm::AssertingVH<llvm::MemoryPhi>>, std::less<llvm::AssertingVH<llvm::MemoryPhi>>>::_Rb_tree_impl" = type { [8 x i8], %"struct.std::_Rb_tree_header" }
%"struct.std::_Rb_tree_header" = type { %"struct.std::_Rb_tree_node_base", i64 }
%"struct.std::_Rb_tree_node_base" = type { i32, ptr, ptr, ptr }
%"class.llvm::MemoryAccess" = type { %"class.llvm::DerivedUser", %"class.llvm::ilist_node.66", %"class.llvm::ilist_node.69", ptr }
%"class.llvm::DerivedUser" = type { %"class.llvm::User", ptr }
%"class.llvm::User" = type { %"class.llvm::Value" }
%"class.llvm::Value" = type { i8, i8, i16, i32, ptr, ptr }
%"class.llvm::ilist_node.66" = type { %"class.llvm::ilist_node_impl.67" }
%"class.llvm::ilist_node_impl.67" = type { %"class.llvm::ilist_node_base" }
%"class.llvm::ilist_node_base" = type { %"class.llvm::ilist_detail::node_base_prevnext" }
%"class.llvm::ilist_detail::node_base_prevnext" = type { ptr, ptr }
%"class.llvm::ilist_node.69" = type { %"class.llvm::ilist_node_impl.70" }
%"class.llvm::ilist_node_impl.70" = type { %"class.llvm::ilist_node_base" }
%"class.llvm::ilist_iterator.249" = type { ptr }

; Function Attrs: mustprogress nounwind uwtable
define linkonce_odr hidden noundef ptr @_ZNK4llvm12ilist_detail18node_base_prevnextINS_15ilist_node_baseILb0EvEELb0EE7getNextEv(ptr noundef nonnull align 8 dereferenceable(16) %0) #0 comdat align 2 {
  %2 = alloca ptr, align 8
  store ptr %0, ptr %2, align 8
  %3 = load ptr, ptr %2, align 8
  %4 = getelementptr inbounds nuw %"class.llvm::ilist_detail::node_base_prevnext", ptr %3, i32 0, i32 1
  %5 = load ptr, ptr %4, align 8
  ret ptr %5
}

; Function Attrs: mustprogress nounwind uwtable
define linkonce_odr hidden void @_ZN4llvm14ilist_iteratorINS_12ilist_detail12node_optionsINS_12MemoryAccessELb0ELb0ENS_11MSSAHelpers12AllAccessTagELb0EvEELb0ELb0EEC2ERNS_15ilist_node_implIS6_EE(ptr noundef nonnull align 8 dereferenceable(8) %0, ptr noundef nonnull align 8 dereferenceable(16) %1) unnamed_addr #0 comdat align 2 {
  %3 = alloca ptr, align 8
  %4 = alloca ptr, align 8
  store ptr %0, ptr %3, align 8
  store ptr %1, ptr %4, align 8
  %5 = load ptr, ptr %3, align 8
  %6 = getelementptr inbounds nuw %"class.llvm::ilist_iterator.249", ptr %5, i32 0, i32 0
  %7 = load ptr, ptr %4, align 8
  store ptr %7, ptr %6, align 8
  ret void
}

; Function Attrs: mustprogress nounwind uwtable
define linkonce_odr hidden noundef ptr @_ZN4llvm15ilist_node_implINS_12ilist_detail12node_optionsINS_12MemoryAccessELb0ELb0ENS_11MSSAHelpers12AllAccessTagELb0EvEEE7getNextEv(ptr noundef nonnull align 8 dereferenceable(16) %0) #0 comdat align 2 {
  %2 = alloca ptr, align 8
  store ptr %0, ptr %2, align 8
  %3 = load ptr, ptr %2, align 8
  %4 = call noundef ptr @_ZNK4llvm12ilist_detail18node_base_prevnextINS_15ilist_node_baseILb0EvEELb0EE7getNextEv(ptr noundef nonnull align 8 dereferenceable(16) %3)
  ret ptr %4
}

; Function Attrs: mustprogress nounwind uwtable
define linkonce_odr hidden ptr @_ZN4llvm15ilist_node_implINS_12ilist_detail12node_optionsINS_12MemoryAccessELb0ELb0ENS_11MSSAHelpers12AllAccessTagELb0EvEEE11getIteratorEv(ptr noundef nonnull align 8 dereferenceable(16) %0) #0 comdat align 2 {
  %2 = alloca %"class.llvm::ilist_iterator.249", align 8
  %3 = alloca ptr, align 8
  store ptr %0, ptr %3, align 8
  %4 = load ptr, ptr %3, align 8
  call void @_ZN4llvm14ilist_iteratorINS_12ilist_detail12node_optionsINS_12MemoryAccessELb0ELb0ENS_11MSSAHelpers12AllAccessTagELb0EvEELb0ELb0EEC2ERNS_15ilist_node_implIS6_EE(ptr noundef nonnull align 8 dereferenceable(8) %2, ptr noundef nonnull align 8 dereferenceable(16) %4)
  %5 = getelementptr inbounds nuw %"class.llvm::ilist_iterator.249", ptr %2, i32 0, i32 0
  %6 = load ptr, ptr %5, align 8
  ret ptr %6
}

; Function Attrs: mustprogress nounwind uwtable
define linkonce_odr hidden noundef nonnull align 8 dereferenceable(8) ptr @_ZN4llvm14ilist_iteratorINS_12ilist_detail12node_optionsINS_12MemoryAccessELb0ELb0ENS_11MSSAHelpers12AllAccessTagELb0EvEELb0ELb0EEppEv(ptr noundef nonnull align 8 dereferenceable(8) %0) #0 comdat align 2 {
  %2 = alloca ptr, align 8
  store ptr %0, ptr %2, align 8
  %3 = load ptr, ptr %2, align 8
  %4 = getelementptr inbounds nuw %"class.llvm::ilist_iterator.249", ptr %3, i32 0, i32 0
  %5 = load ptr, ptr %4, align 8
  %6 = call noundef ptr @_ZN4llvm15ilist_node_implINS_12ilist_detail12node_optionsINS_12MemoryAccessELb0ELb0ENS_11MSSAHelpers12AllAccessTagELb0EvEEE7getNextEv(ptr noundef nonnull align 8 dereferenceable(16) %5)
  %7 = getelementptr inbounds nuw %"class.llvm::ilist_iterator.249", ptr %3, i32 0, i32 0
  store ptr %6, ptr %7, align 8
  ret ptr %3
}

; Function Attrs: mustprogress nounwind uwtable
define linkonce_odr hidden ptr @_ZN4llvm12MemoryAccess11getIteratorEv(ptr noundef nonnull align 8 dereferenceable(72) %0) #0 comdat align 2 {
  %2 = alloca %"class.llvm::ilist_iterator.249", align 8
  %3 = alloca ptr, align 8
  store ptr %0, ptr %3, align 8
  %4 = load ptr, ptr %3, align 8
  %5 = getelementptr inbounds i8, ptr %4, i64 32
  %6 = call ptr @_ZN4llvm15ilist_node_implINS_12ilist_detail12node_optionsINS_12MemoryAccessELb0ELb0ENS_11MSSAHelpers12AllAccessTagELb0EvEEE11getIteratorEv(ptr noundef nonnull align 8 dereferenceable(16) %5)
  %7 = getelementptr inbounds nuw %"class.llvm::ilist_iterator.249", ptr %2, i32 0, i32 0
  store ptr %6, ptr %7, align 8
  %8 = getelementptr inbounds nuw %"class.llvm::ilist_iterator.249", ptr %2, i32 0, i32 0
  %9 = load ptr, ptr %8, align 8
  ret ptr %9
}

; Function Attrs: mustprogress nounwind uwtable
define linkonce_odr hidden noundef ptr @_ZNK4llvm12MemoryAccess8getBlockEv(ptr noundef nonnull align 8 dereferenceable(72) %0) #0 comdat align 2 {
  %2 = alloca ptr, align 8
  store ptr %0, ptr %2, align 8
  %3 = load ptr, ptr %2, align 8
  %4 = getelementptr inbounds nuw %"class.llvm::MemoryAccess", ptr %3, i32 0, i32 3
  %5 = load ptr, ptr %4, align 8
  ret ptr %5
}

; Function Attrs: mustprogress nounwind uwtable
define dso_local noundef ptr @_ZN4llvm16MemorySSAUpdater23createMemoryAccessAfterEPNS_11InstructionEPNS_12MemoryAccessES4_(ptr noundef nonnull align 8 dereferenceable(632) %0, ptr noundef %1, ptr noundef %2, ptr noundef %3) #0 align 2 {
  %5 = alloca ptr, align 8
  %6 = alloca ptr, align 8
  %7 = alloca ptr, align 8
  %8 = alloca ptr, align 8
  %9 = alloca ptr, align 8
  %10 = alloca %"class.llvm::ilist_iterator.249", align 8
  %11 = alloca %"class.llvm::ilist_iterator.249", align 8
  store ptr %0, ptr %5, align 8
  store ptr %1, ptr %6, align 8
  store ptr %2, ptr %7, align 8
  store ptr %3, ptr %8, align 8
  %12 = load ptr, ptr %5, align 8
  %13 = getelementptr inbounds nuw %"class.llvm::MemorySSAUpdater", ptr %12, i32 0, i32 0
  %14 = load ptr, ptr %13, align 8
  %15 = load ptr, ptr %6, align 8
  %16 = load ptr, ptr %7, align 8
  %17 = call noundef ptr @_ZN4llvm9MemorySSA19createDefinedAccessEPNS_11InstructionEPNS_12MemoryAccessEPKNS_14MemoryUseOrDefEb(ptr noundef nonnull align 8 dereferenceable(325) %14, ptr noundef %15, ptr noundef %16, ptr noundef null, i1 noundef zeroext true)
  store ptr %17, ptr %9, align 8
  %18 = getelementptr inbounds nuw %"class.llvm::MemorySSAUpdater", ptr %12, i32 0, i32 0
  %19 = load ptr, ptr %18, align 8
  %20 = load ptr, ptr %9, align 8
  %21 = load ptr, ptr %8, align 8
  %22 = call noundef ptr @_ZNK4llvm12MemoryAccess8getBlockEv(ptr noundef nonnull align 8 dereferenceable(72) %21)
  %23 = load ptr, ptr %8, align 8
  %24 = call ptr @_ZN4llvm12MemoryAccess11getIteratorEv(ptr noundef nonnull align 8 dereferenceable(72) %23)
  %25 = getelementptr inbounds nuw %"class.llvm::ilist_iterator.249", ptr %11, i32 0, i32 0
  store ptr %24, ptr %25, align 8
  %26 = call noundef nonnull align 8 dereferenceable(8) ptr @_ZN4llvm14ilist_iteratorINS_12ilist_detail12node_optionsINS_12MemoryAccessELb0ELb0ENS_11MSSAHelpers12AllAccessTagELb0EvEELb0ELb0EEppEv(ptr noundef nonnull align 8 dereferenceable(8) %11)
  call void @llvm.memcpy.p0.p0.i64(ptr align 8 %10, ptr align 8 %26, i64 8, i1 false)
  %27 = getelementptr inbounds nuw %"class.llvm::ilist_iterator.249", ptr %10, i32 0, i32 0
  %28 = load ptr, ptr %27, align 8
  call void @_ZN4llvm9MemorySSA21insertIntoListsBeforeEPNS_12MemoryAccessEPKNS_10BasicBlockENS_14ilist_iteratorINS_12ilist_detail12node_optionsIS1_Lb0ELb0ENS_11MSSAHelpers12AllAccessTagELb0EvEELb0ELb0EEE(ptr noundef nonnull align 8 dereferenceable(325) %19, ptr noundef %20, ptr noundef %22, ptr %28)
  %29 = load ptr, ptr %9, align 8
  ret ptr %29
}