; Function Attrs: mustprogress nounwind uwtable
define dso_local noundef ptr @_ZN4llvm16MemorySSAUpdater23createMemoryAccessAfterEPNS_11InstructionEPNS_12MemoryAccessES4_(ptr nocapture noundef nonnull readonly align 8 dereferenceable(632) %0, ptr noundef %1, ptr noundef %2, ptr nocapture noundef readonly %3) local_unnamed_addr #0 align 2 {
  %5 = load ptr, ptr %0, align 8
  %6 = tail call noundef ptr @_ZN4llvm9MemorySSA19createDefinedAccessEPNS_11InstructionEPNS_12MemoryAccessEPKNS_14MemoryUseOrDefEb(ptr noundef nonnull align 8 dereferenceable(325) %5, ptr noundef %1, ptr noundef %2, ptr noundef null, i1 noundef zeroext true) #15
  %7 = load ptr, ptr %0, align 8
  %8 = getelementptr inbounds nuw i8, ptr %3, i64 64
  %9 = load ptr, ptr %8, align 8
  %10 = getelementptr inbounds i8, ptr %3, i64 40
  %11 = load ptr, ptr %10, align 8
  tail call void @_ZN4llvm9MemorySSA21insertIntoListsBeforeEPNS_12MemoryAccessEPKNS_10BasicBlockENS_14ilist_iteratorINS_12ilist_detail12node_optionsIS1_Lb0ELb0ENS_11MSSAHelpers12AllAccessTagELb0EvEELb0ELb0EEE(ptr noundef nonnull align 8 dereferenceable(325) %7, ptr noundef %6, ptr noundef %9, ptr %11) #15
  ret ptr %6
}